target datalayout = "e-m:e-p270:32:32-p271:32:32-p272:64:64-i64:64-i128:128-f80:128-n8:16:32:64-S128"
target triple = "x86_64-pc-linux-gnu"

%struct.AVFilterContext = type { ptr, ptr, ptr, ptr, ptr, i32, ptr, ptr, i32, ptr, ptr, i32, i32, ptr, ptr, ptr, ptr, i32, ptr, i32, i32 }
%struct.ReadEIA608Context = type { ptr, i32, i32, float, i32, i32, i32, i32, i32, ptr, [2 x ptr] }
%struct.ScanItem = type { i32, i32, i32, i32, ptr, [2 x i8], ptr, ptr }
%struct.AVFilterLink = type { ptr, ptr, ptr, ptr, i32, i32, i32, i32, %struct.AVRational, i32, i32, i32, %struct.AVChannelLayout, %struct.AVRational, ptr, i32, %struct.AVFilterFormatsConfig, %struct.AVFilterFormatsConfig }
%struct.AVChannelLayout = type { i32, i32, %union.anon.1, ptr }
%union.anon.1 = type { i64 }
%struct.AVRational = type { i32, i32 }
%struct.AVFilterFormatsConfig = type { ptr, ptr, ptr, ptr, ptr }
%struct.AVFrame = type { [8 x ptr], [8 x i32], ptr, i32, i32, i32, i32, i32, %struct.AVRational, i64, i64, %struct.AVRational, i32, ptr, i32, i32, [8 x ptr], ptr, i32, ptr, i32, i32, i32, i32, i32, i32, i32, i64, ptr, i32, ptr, ptr, i64, i64, i64, i64, ptr, %struct.AVChannelLayout, i64 }

@.str.3 = private unnamed_addr constant [23 x i8] c"lavfi.readeia608.%d.cc\00", align 1
@.str.4 = private unnamed_addr constant [11 x i8] c"0x%02X%02X\00", align 1
@.str.5 = private unnamed_addr constant [25 x i8] c"lavfi.readeia608.%d.line\00", align 1

; Function Attrs: nounwind uwtable
define internal i32 @filter_frame(ptr noundef %0, ptr noundef %1) #1 {
  %3 = alloca ptr, align 8
  %4 = alloca ptr, align 8
  %5 = alloca ptr, align 8
  %6 = alloca ptr, align 8
  %7 = alloca ptr, align 8
  %8 = alloca i32, align 4
  %9 = alloca i32, align 4
  %10 = alloca i32, align 4
  %11 = alloca ptr, align 8
  %12 = alloca [128 x i8], align 16
  %13 = alloca [128 x i8], align 16
  store ptr %0, ptr %3, align 8, !tbaa !36
  store ptr %1, ptr %4, align 8, !tbaa !38
  call void @llvm.lifetime.start.p0(i64 8, ptr %5) #8
  %14 = load ptr, ptr %3, align 8, !tbaa !36
  %15 = getelementptr inbounds nuw %struct.AVFilterLink, ptr %14, i32 0, i32 2
  %16 = load ptr, ptr %15, align 8, !tbaa !40
  store ptr %16, ptr %5, align 8, !tbaa !4
  call void @llvm.lifetime.start.p0(i64 8, ptr %6) #8
  %17 = load ptr, ptr %5, align 8, !tbaa !4
  %18 = getelementptr inbounds nuw %struct.AVFilterContext, ptr %17, i32 0, i32 7
  %19 = load ptr, ptr %18, align 8, !tbaa !48
  %20 = getelementptr inbounds ptr, ptr %19, i64 0
  %21 = load ptr, ptr %20, align 8, !tbaa !36
  store ptr %21, ptr %6, align 8, !tbaa !36
  call void @llvm.lifetime.start.p0(i64 8, ptr %7) #8
  %22 = load ptr, ptr %5, align 8, !tbaa !4
  %23 = getelementptr inbounds nuw %struct.AVFilterContext, ptr %22, i32 0, i32 9
  %24 = load ptr, ptr %23, align 8, !tbaa !9
  store ptr %24, ptr %7, align 8, !tbaa !22
  call void @llvm.lifetime.start.p0(i64 4, ptr %8) #8
  %25 = load ptr, ptr %5, align 8, !tbaa !4
  %26 = load ptr, ptr %4, align 8, !tbaa !38
  %27 = load ptr, ptr %7, align 8, !tbaa !22
  %28 = getelementptr inbounds nuw %struct.ReadEIA608Context, ptr %27, i32 0, i32 2
  %29 = load i32, ptr %28, align 4, !tbaa !35
  %30 = load ptr, ptr %7, align 8, !tbaa !22
  %31 = getelementptr inbounds nuw %struct.ReadEIA608Context, ptr %30, i32 0, i32 1
  %32 = load i32, ptr %31, align 8, !tbaa !34
  %33 = sub nsw i32 %29, %32
  %34 = add nsw i32 %33, 1
  %35 = icmp sgt i32 %34, 1
  br i1 %35, label %36, label %45

36:                                               ; preds = %2
  %37 = load ptr, ptr %7, align 8, !tbaa !22
  %38 = getelementptr inbounds nuw %struct.ReadEIA608Context, ptr %37, i32 0, i32 2
  %39 = load i32, ptr %38, align 4, !tbaa !35
  %40 = load ptr, ptr %7, align 8, !tbaa !22
  %41 = getelementptr inbounds nuw %struct.ReadEIA608Context, ptr %40, i32 0, i32 1
  %42 = load i32, ptr %41, align 8, !tbaa !34
  %43 = sub nsw i32 %39, %42
  %44 = add nsw i32 %43, 1
  br label %46

45:                                               ; preds = %2
  br label %46

46:                                               ; preds = %45, %36
  %47 = phi i32 [ %44, %36 ], [ 1, %45 ]
  %48 = load ptr, ptr %5, align 8, !tbaa !4
  %49 = call i32 @ff_filter_get_nb_threads(ptr noundef %48) #9
  %50 = icmp sgt i32 %47, %49
  br i1 %50, label %51, label %54

51:                                               ; preds = %46
  %52 = load ptr, ptr %5, align 8, !tbaa !4
  %53 = call i32 @ff_filter_get_nb_threads(ptr noundef %52) #9
  br label %76

54:                                               ; preds = %46
  %55 = load ptr, ptr %7, align 8, !tbaa !22
  %56 = getelementptr inbounds nuw %struct.ReadEIA608Context, ptr %55, i32 0, i32 2
  %57 = load i32, ptr %56, align 4, !tbaa !35
  %58 = load ptr, ptr %7, align 8, !tbaa !22
  %59 = getelementptr inbounds nuw %struct.ReadEIA608Context, ptr %58, i32 0, i32 1
  %60 = load i32, ptr %59, align 8, !tbaa !34
  %61 = sub nsw i32 %57, %60
  %62 = add nsw i32 %61, 1
  %63 = icmp sgt i32 %62, 1
  br i1 %63, label %64, label %73

64:                                               ; preds = %54
  %65 = load ptr, ptr %7, align 8, !tbaa !22
  %66 = getelementptr inbounds nuw %struct.ReadEIA608Context, ptr %65, i32 0, i32 2
  %67 = load i32, ptr %66, align 4, !tbaa !35
  %68 = load ptr, ptr %7, align 8, !tbaa !22
  %69 = getelementptr inbounds nuw %struct.ReadEIA608Context, ptr %68, i32 0, i32 1
  %70 = load i32, ptr %69, align 8, !tbaa !34
  %71 = sub nsw i32 %67, %70
  %72 = add nsw i32 %71, 1
  br label %74

73:                                               ; preds = %54
  br label %74

74:                                               ; preds = %73, %64
  %75 = phi i32 [ %72, %64 ], [ 1, %73 ]
  br label %76

76:                                               ; preds = %74, %51
  %77 = phi i32 [ %53, %51 ], [ %75, %74 ]
  %78 = call i32 @ff_filter_execute(ptr noundef %25, ptr noundef @extract_lines, ptr noundef %26, ptr noundef null, i32 noundef %77)
  store i32 0, ptr %8, align 4, !tbaa !24
  call void @llvm.lifetime.start.p0(i64 4, ptr %9) #8
  store i32 0, ptr %9, align 4, !tbaa !24
  br label %79

79:                                               ; preds = %140, %76
  %80 = load i32, ptr %9, align 4, !tbaa !24
  %81 = load ptr, ptr %7, align 8, !tbaa !22
  %82 = getelementptr inbounds nuw %struct.ReadEIA608Context, ptr %81, i32 0, i32 2
  %83 = load i32, ptr %82, align 4, !tbaa !35
  %84 = load ptr, ptr %7, align 8, !tbaa !22
  %85 = getelementptr inbounds nuw %struct.ReadEIA608Context, ptr %84, i32 0, i32 1
  %86 = load i32, ptr %85, align 8, !tbaa !34
  %87 = sub nsw i32 %83, %86
  %88 = add nsw i32 %87, 1
  %89 = icmp slt i32 %80, %88
  br i1 %89, label %91, label %90

90:                                               ; preds = %79
  store i32 2, ptr %10, align 4
  call void @llvm.lifetime.end.p0(i64 4, ptr %9) #8
  br label %143

91:                                               ; preds = %79
  call void @llvm.lifetime.start.p0(i64 8, ptr %11) #8
  %92 = load ptr, ptr %7, align 8, !tbaa !22
  %93 = getelementptr inbounds nuw %struct.ReadEIA608Context, ptr %92, i32 0, i32 9
  %94 = load ptr, ptr %93, align 8, !tbaa !29
  %95 = load i32, ptr %9, align 4, !tbaa !24
  %96 = sext i32 %95 to i64
  %97 = getelementptr inbounds %struct.ScanItem, ptr %94, i64 %96
  store ptr %97, ptr %11, align 8, !tbaa !30
  call void @llvm.lifetime.start.p0(i64 128, ptr %12) #8
  call void @llvm.lifetime.start.p0(i64 128, ptr %13) #8
  %98 = load ptr, ptr %11, align 8, !tbaa !30
  %99 = getelementptr inbounds nuw %struct.ScanItem, ptr %98, i32 0, i32 1
  %100 = load i32, ptr %99, align 4, !tbaa !49
  %101 = icmp ne i32 %100, 0
  br i1 %101, label %103, label %102

102:                                              ; preds = %91
  store i32 4, ptr %10, align 4
  br label %137

103:                                              ; preds = %91
  %104 = getelementptr inbounds [128 x i8], ptr %12, i64 0, i64 0
  %105 = load i32, ptr %8, align 4, !tbaa !24
  %106 = call i32 (ptr, i64, ptr, ...) @snprintf(ptr noundef %104, i64 noundef 128, ptr noundef @.str.3, i32 noundef %105) #8
  %107 = getelementptr inbounds [128 x i8], ptr %13, i64 0, i64 0
  %108 = load ptr, ptr %11, align 8, !tbaa !30
  %109 = getelementptr inbounds nuw %struct.ScanItem, ptr %108, i32 0, i32 5
  %110 = getelementptr inbounds [2 x i8], ptr %109, i64 0, i64 0
  %111 = load i8, ptr %110, align 8, !tbaa !54
  %112 = zext i8 %111 to i32
  %113 = load ptr, ptr %11, align 8, !tbaa !30
  %114 = getelementptr inbounds nuw %struct.ScanItem, ptr %113, i32 0, i32 5
  %115 = getelementptr inbounds [2 x i8], ptr %114, i64 0, i64 1
  %116 = load i8, ptr %115, align 1, !tbaa !54
  %117 = zext i8 %116 to i32
  %118 = call i32 (ptr, i64, ptr, ...) @snprintf(ptr noundef %107, i64 noundef 128, ptr noundef @.str.4, i32 noundef %112, i32 noundef %117) #8
  %119 = load ptr, ptr %4, align 8, !tbaa !38
  %120 = getelementptr inbounds nuw %struct.AVFrame, ptr %119, i32 0, i32 28
  %121 = getelementptr inbounds [128 x i8], ptr %12, i64 0, i64 0
  %122 = getelementptr inbounds [128 x i8], ptr %13, i64 0, i64 0
  %123 = call i32 @av_dict_set(ptr noundef %120, ptr noundef %121, ptr noundef %122, i32 noundef 0)
  %124 = getelementptr inbounds [128 x i8], ptr %12, i64 0, i64 0
  %125 = load i32, ptr %8, align 4, !tbaa !24
  %126 = call i32 (ptr, i64, ptr, ...) @snprintf(ptr noundef %124, i64 noundef 128, ptr noundef @.str.5, i32 noundef %125) #8
  %127 = load ptr, ptr %4, align 8, !tbaa !38
  %128 = getelementptr inbounds nuw %struct.AVFrame, ptr %127, i32 0, i32 28
  %129 = getelementptr inbounds [128 x i8], ptr %12, i64 0, i64 0
  %130 = load ptr, ptr %11, align 8, !tbaa !30
  %131 = getelementptr inbounds nuw %struct.ScanItem, ptr %130, i32 0, i32 0
  %132 = load i32, ptr %131, align 8, !tbaa !55
  %133 = sext i32 %132 to i64
  %134 = call i32 @av_dict_set_int(ptr noundef %128, ptr noundef %129, i64 noundef %133, i32 noundef 0)
  %135 = load i32, ptr %8, align 4, !tbaa !24
  %136 = add nsw i32 %135, 1
  store i32 %136, ptr %8, align 4, !tbaa !24
  store i32 0, ptr %10, align 4
  br label %137

137:                                              ; preds = %103, %102
  call void @llvm.lifetime.end.p0(i64 128, ptr %13) #8
  call void @llvm.lifetime.end.p0(i64 128, ptr %12) #8
  call void @llvm.lifetime.end.p0(i64 8, ptr %11) #8
  %138 = load i32, ptr %10, align 4
  switch i32 %138, label %147 [
    i32 0, label %139
    i32 4, label %140
  ]

139:                                              ; preds = %137
  br label %140

140:                                              ; preds = %139, %137
  %141 = load i32, ptr %9, align 4, !tbaa !24
  %142 = add nsw i32 %141, 1
  store i32 %142, ptr %9, align 4, !tbaa !24
  br label %79, !llvm.loop !56

143:                                              ; preds = %90
  %144 = load ptr, ptr %6, align 8, !tbaa !36
  %145 = load ptr, ptr %4, align 8, !tbaa !38
  %146 = call i32 @ff_filter_frame(ptr noundef %144, ptr noundef %145)
  store i32 1, ptr %10, align 4
  call void @llvm.lifetime.end.p0(i64 4, ptr %8) #8
  call void @llvm.lifetime.end.p0(i64 8, ptr %7) #8
  call void @llvm.lifetime.end.p0(i64 8, ptr %6) #8
  call void @llvm.lifetime.end.p0(i64 8, ptr %5) #8
  ret i32 %146

147:                                              ; preds = %137
  unreachable
}