; Function Attrs: nounwind uwtable
define internal i32 @filter_frame(ptr noundef readonly captures(none) %0, ptr noundef %1) #1 {
  %3 = alloca [128 x i8], align 16
  %4 = alloca [128 x i8], align 16
  %5 = getelementptr inbounds nuw i8, ptr %0, i64 16
  %6 = load ptr, ptr %5, align 8, !tbaa !29
  %7 = getelementptr inbounds nuw i8, ptr %6, i64 56
  %8 = load ptr, ptr %7, align 8, !tbaa !38
  %9 = load ptr, ptr %8, align 8, !tbaa !39
  %10 = getelementptr inbounds nuw i8, ptr %6, i64 72
  %11 = load ptr, ptr %10, align 8, !tbaa !4
  %12 = getelementptr inbounds nuw i8, ptr %11, i64 12
  %13 = load i32, ptr %12, align 4, !tbaa !28
  %14 = getelementptr inbounds nuw i8, ptr %11, i64 8
  %15 = load i32, ptr %14, align 8, !tbaa !27
  %16 = sub nsw i32 %13, %15
  %17 = tail call i32 @llvm.smax.i32(i32 %16, i32 0)
  %spec.select = add nuw i32 %17, 1
  %18 = tail call i32 @ff_filter_get_nb_threads(ptr noundef %6) #11
  %spec.select37 = tail call i32 @llvm.smin.i32(i32 %spec.select, i32 %18)
  %19 = tail call i32 @ff_filter_execute(ptr noundef nonnull %6, ptr noundef nonnull @extract_lines, ptr noundef %1, ptr noundef null, i32 noundef %spec.select37) #10
  %20 = load i32, ptr %12, align 4, !tbaa !28
  %21 = load i32, ptr %14, align 8, !tbaa !27
  %.not38 = icmp slt i32 %20, %21
  br i1 %.not38, label %._crit_edge, label %.lr.ph

.lr.ph:                                           ; preds = %2
  %22 = getelementptr inbounds nuw i8, ptr %11, i64 40
  %23 = getelementptr inbounds nuw i8, ptr %1, i64 312
  br label %25

._crit_edge:                                      ; preds = %47, %2
  %24 = call i32 @ff_filter_frame(ptr noundef %9, ptr noundef %1) #10
  ret i32 %24

25:                                               ; preds = %.lr.ph, %47
  %26 = phi i32 [ %21, %.lr.ph ], [ %48, %47 ]
  %27 = phi i32 [ %20, %.lr.ph ], [ %49, %47 ]
  %indvars.iv = phi i64 [ 0, %.lr.ph ], [ %indvars.iv.next, %47 ]
  %.040 = phi i32 [ 0, %.lr.ph ], [ %.1, %47 ]
  %28 = load ptr, ptr %22, align 8, !tbaa !24
  %29 = getelementptr inbounds nuw %struct.ScanItem, ptr %28, i64 %indvars.iv
  call void @llvm.lifetime.start.p0(i64 128, ptr nonnull %3) #10
  call void @llvm.lifetime.start.p0(i64 128, ptr nonnull %4) #10
  %30 = getelementptr inbounds nuw i8, ptr %29, i64 4
  %31 = load i32, ptr %30, align 4, !tbaa !41
  %.not35 = icmp eq i32 %31, 0
  br i1 %.not35, label %47, label %32

32:                                               ; preds = %25
  %33 = call i32 (ptr, i64, ptr, ...) @snprintf(ptr noundef nonnull dereferenceable(1) %3, i64 noundef 128, ptr noundef nonnull @.str.3, i32 noundef %.040) #10
  %34 = getelementptr inbounds nuw i8, ptr %29, i64 24
  %35 = load i8, ptr %34, align 8, !tbaa !46
  %36 = zext i8 %35 to i32
  %37 = getelementptr inbounds nuw i8, ptr %29, i64 25
  %38 = load i8, ptr %37, align 1, !tbaa !46
  %39 = zext i8 %38 to i32
  %40 = call i32 (ptr, i64, ptr, ...) @snprintf(ptr noundef nonnull dereferenceable(1) %4, i64 noundef 128, ptr noundef nonnull @.str.4, i32 noundef %36, i32 noundef %39) #10
  %41 = call i32 @av_dict_set(ptr noundef nonnull %23, ptr noundef nonnull %3, ptr noundef nonnull %4, i32 noundef 0) #10
  %42 = call i32 (ptr, i64, ptr, ...) @snprintf(ptr noundef nonnull dereferenceable(1) %3, i64 noundef 128, ptr noundef nonnull @.str.5, i32 noundef %.040) #10
  %43 = load i32, ptr %29, align 8, !tbaa !47
  %44 = sext i32 %43 to i64
  %45 = call i32 @av_dict_set_int(ptr noundef nonnull %23, ptr noundef nonnull %3, i64 noundef %44, i32 noundef 0) #10
  %46 = add nsw i32 %.040, 1
  %.pre = load i32, ptr %12, align 4, !tbaa !28
  %.pre42 = load i32, ptr %14, align 8, !tbaa !27
  br label %47

47:                                               ; preds = %25, %32
  %48 = phi i32 [ %.pre42, %32 ], [ %26, %25 ]
  %49 = phi i32 [ %.pre, %32 ], [ %27, %25 ]
  %.1 = phi i32 [ %46, %32 ], [ %.040, %25 ]
  call void @llvm.lifetime.end.p0(i64 128, ptr nonnull %4) #10
  call void @llvm.lifetime.end.p0(i64 128, ptr nonnull %3) #10
  %indvars.iv.next = add nuw nsw i64 %indvars.iv, 1
  %50 = sub nsw i32 %49, %48
  %51 = sext i32 %50 to i64
  %.not.not = icmp slt i64 %indvars.iv, %51
  br i1 %.not.not, label %25, label %._crit_edge, !llvm.loop !48
}